target datalayout = "e-m:e-p270:32:32-p271:32:32-p272:64:64-i64:64-i128:128-f80:128-n8:16:32:64-S128"
target triple = "x86_64-unknown-linux-gnu"

%struct.ec_key_st = type { ptr, ptr, ptr, i32, i32, i32, ptr, %struct.crypto_ex_data_st }
%struct.crypto_ex_data_st = type { ptr }

@.str = private unnamed_addr constant [123 x i8] c"generated/home/dtcxzyw/WorkSpace/Projects/compilers/llvm-opt-benchmark/bench/libquic/libquic/boringssl/crypto/ec/ec_asn1.c\00", align 1

; Function Attrs: nounwind uwtable
define hidden i32 @i2o_ECPublicKey(ptr noundef %key, ptr noundef %outp) #0 {
entry:
  %retval = alloca i32, align 4
  %key.addr = alloca ptr, align 8
  %outp.addr = alloca ptr, align 8
  %buf_len = alloca i64, align 8
  %new_buffer = alloca i32, align 4
  store ptr %key, ptr %key.addr, align 8
  store ptr %outp, ptr %outp.addr, align 8
  store i64 0, ptr %buf_len, align 8
  store i32 0, ptr %new_buffer, align 4
  %0 = load ptr, ptr %key.addr, align 8
  %cmp = icmp eq ptr %0, null
  br i1 %cmp, label %if.then, label %if.end

if.then:                                          ; preds = %entry
  call void @ERR_put_error(i32 noundef 15, i32 noundef 0, i32 noundef 67, ptr noundef @.str, i32 noundef 515)
  store i32 0, ptr %retval, align 4
  br label %return

if.end:                                           ; preds = %entry
  %1 = load ptr, ptr %key.addr, align 8
  %group = getelementptr inbounds %struct.ec_key_st, ptr %1, i32 0, i32 0
  %2 = load ptr, ptr %group, align 8
  %3 = load ptr, ptr %key.addr, align 8
  %pub_key = getelementptr inbounds %struct.ec_key_st, ptr %3, i32 0, i32 1
  %4 = load ptr, ptr %pub_key, align 8
  %5 = load ptr, ptr %key.addr, align 8
  %conv_form = getelementptr inbounds %struct.ec_key_st, ptr %5, i32 0, i32 4
  %6 = load i32, ptr %conv_form, align 4
  %call = call i64 @EC_POINT_point2oct(ptr noundef %2, ptr noundef %4, i32 noundef %6, ptr noundef null, i64 noundef 0, ptr noundef null)
  store i64 %call, ptr %buf_len, align 8
  %7 = load ptr, ptr %outp.addr, align 8
  %cmp1 = icmp eq ptr %7, null
  br i1 %cmp1, label %if.then3, label %lor.lhs.false

lor.lhs.false:                                    ; preds = %if.end
  %8 = load i64, ptr %buf_len, align 8
  %cmp2 = icmp eq i64 %8, 0
  br i1 %cmp2, label %if.then3, label %if.end4

if.then3:                                         ; preds = %lor.lhs.false, %if.end
  %9 = load i64, ptr %buf_len, align 8
  %conv = trunc i64 %9 to i32
  store i32 %conv, ptr %retval, align 4
  br label %return

if.end4:                                          ; preds = %lor.lhs.false
  %10 = load ptr, ptr %outp.addr, align 8
  %11 = load ptr, ptr %10, align 8
  %cmp5 = icmp eq ptr %11, null
  br i1 %cmp5, label %if.then7, label %if.end13

if.then7:                                         ; preds = %if.end4
  %12 = load i64, ptr %buf_len, align 8
  %call8 = call noalias ptr @malloc(i64 noundef %12) #7
  %13 = load ptr, ptr %outp.addr, align 8
  store ptr %call8, ptr %13, align 8
  %14 = load ptr, ptr %outp.addr, align 8
  %15 = load ptr, ptr %14, align 8
  %cmp9 = icmp eq ptr %15, null
  br i1 %cmp9, label %if.then11, label %if.end12

if.then11:                                        ; preds = %if.then7
  call void @ERR_put_error(i32 noundef 15, i32 noundef 0, i32 noundef 65, ptr noundef @.str, i32 noundef 530)
  store i32 0, ptr %retval, align 4
  br label %return

if.end12:                                         ; preds = %if.then7
  store i32 1, ptr %new_buffer, align 4
  br label %if.end13

if.end13:                                         ; preds = %if.end12, %if.end4
  %16 = load ptr, ptr %key.addr, align 8
  %group14 = getelementptr inbounds %struct.ec_key_st, ptr %16, i32 0, i32 0
  %17 = load ptr, ptr %group14, align 8
  %18 = load ptr, ptr %key.addr, align 8
  %pub_key15 = getelementptr inbounds %struct.ec_key_st, ptr %18, i32 0, i32 1
  %19 = load ptr, ptr %pub_key15, align 8
  %20 = load ptr, ptr %key.addr, align 8
  %conv_form16 = getelementptr inbounds %struct.ec_key_st, ptr %20, i32 0, i32 4
  %21 = load i32, ptr %conv_form16, align 4
  %22 = load ptr, ptr %outp.addr, align 8
  %23 = load ptr, ptr %22, align 8
  %24 = load i64, ptr %buf_len, align 8
  %call17 = call i64 @EC_POINT_point2oct(ptr noundef %17, ptr noundef %19, i32 noundef %21, ptr noundef %23, i64 noundef %24, ptr noundef null)
  %tobool = icmp ne i64 %call17, 0
  br i1 %tobool, label %if.end22, label %if.then18

if.then18:                                        ; preds = %if.end13
  call void @ERR_put_error(i32 noundef 15, i32 noundef 0, i32 noundef 15, ptr noundef @.str, i32 noundef 537)
  %25 = load i32, ptr %new_buffer, align 4
  %tobool19 = icmp ne i32 %25, 0
  br i1 %tobool19, label %if.then20, label %if.end21

if.then20:                                        ; preds = %if.then18
  %26 = load ptr, ptr %outp.addr, align 8
  %27 = load ptr, ptr %26, align 8
  call void @free(ptr noundef %27) #8
  %28 = load ptr, ptr %outp.addr, align 8
  store ptr null, ptr %28, align 8
  br label %if.end21

if.end21:                                         ; preds = %if.then20, %if.then18
  store i32 0, ptr %retval, align 4
  br label %return

if.end22:                                         ; preds = %if.end13
  %29 = load i32, ptr %new_buffer, align 4
  %tobool23 = icmp ne i32 %29, 0
  br i1 %tobool23, label %if.end25, label %if.then24

if.then24:                                        ; preds = %if.end22
  %30 = load i64, ptr %buf_len, align 8
  %31 = load ptr, ptr %outp.addr, align 8
  %32 = load ptr, ptr %31, align 8
  %add.ptr = getelementptr inbounds i8, ptr %32, i64 %30
  store ptr %add.ptr, ptr %31, align 8
  br label %if.end25

if.end25:                                         ; preds = %if.then24, %if.end22
  %33 = load i64, ptr %buf_len, align 8
  %conv26 = trunc i64 %33 to i32
  store i32 %conv26, ptr %retval, align 4
  br label %return

return:                                           ; preds = %if.end25, %if.end21, %if.then11, %if.then3, %if.then
  %34 = load i32, ptr %retval, align 4
  ret i32 %34
}