; Function Attrs: nounwind uwtable
define hidden i32 @i2o_ECPublicKey(ptr noundef readonly %key, ptr noundef %outp) local_unnamed_addr #0 {
entry:
  %cmp = icmp eq ptr %key, null
  br i1 %cmp, label %if.then, label %if.end

if.then:                                          ; preds = %entry
  tail call void @ERR_put_error(i32 noundef 15, i32 noundef 0, i32 noundef 67, ptr noundef nonnull @.str, i32 noundef 515) #7
  br label %return

if.end:                                           ; preds = %entry
  %0 = load ptr, ptr %key, align 8
  %pub_key = getelementptr inbounds nuw i8, ptr %key, i64 8
  %1 = load ptr, ptr %pub_key, align 8
  %conv_form = getelementptr inbounds nuw i8, ptr %key, i64 28
  %2 = load i32, ptr %conv_form, align 4
  %call = tail call i64 @EC_POINT_point2oct(ptr noundef %0, ptr noundef %1, i32 noundef %2, ptr noundef null, i64 noundef 0, ptr noundef null) #7
  %cmp1 = icmp eq ptr %outp, null
  %cmp2 = icmp eq i64 %call, 0
  %or.cond = select i1 %cmp1, i1 true, i1 %cmp2
  br i1 %or.cond, label %if.then3, label %if.end4

if.then3:                                         ; preds = %if.end
  %conv = trunc i64 %call to i32
  br label %return

if.end4:                                          ; preds = %if.end
  %3 = load ptr, ptr %outp, align 8
  %cmp5.not.not = icmp eq ptr %3, null
  br i1 %cmp5.not.not, label %if.then7, label %if.end13

if.then7:                                         ; preds = %if.end4
  %call8 = tail call noalias ptr @malloc(i64 noundef %call) #8
  store ptr %call8, ptr %outp, align 8
  %cmp9 = icmp eq ptr %call8, null
  br i1 %cmp9, label %if.then11, label %if.end13

if.then11:                                        ; preds = %if.then7
  tail call void @ERR_put_error(i32 noundef 15, i32 noundef 0, i32 noundef 65, ptr noundef nonnull @.str, i32 noundef 530) #7
  br label %return

if.end13:                                         ; preds = %if.then7, %if.end4
  %4 = phi ptr [ %call8, %if.then7 ], [ %3, %if.end4 ]
  %5 = load ptr, ptr %key, align 8
  %6 = load ptr, ptr %pub_key, align 8
  %7 = load i32, ptr %conv_form, align 4
  %call17 = tail call i64 @EC_POINT_point2oct(ptr noundef %5, ptr noundef %6, i32 noundef %7, ptr noundef nonnull %4, i64 noundef %call, ptr noundef null) #7
  %tobool.not = icmp eq i64 %call17, 0
  br i1 %tobool.not, label %if.then18, label %if.end22

if.then18:                                        ; preds = %if.end13
  tail call void @ERR_put_error(i32 noundef 15, i32 noundef 0, i32 noundef 15, ptr noundef nonnull @.str, i32 noundef 537) #7
  br i1 %cmp5.not.not, label %if.then20, label %return

if.then20:                                        ; preds = %if.then18
  %8 = load ptr, ptr %outp, align 8
  tail call void @free(ptr noundef %8) #7
  store ptr null, ptr %outp, align 8
  br label %return

if.end22:                                         ; preds = %if.end13
  br i1 %cmp5.not.not, label %if.end25, label %if.then24

if.then24:                                        ; preds = %if.end22
  %9 = load ptr, ptr %outp, align 8
  %add.ptr = getelementptr inbounds i8, ptr %9, i64 %call
  store ptr %add.ptr, ptr %outp, align 8
  br label %if.end25

if.end25:                                         ; preds = %if.then24, %if.end22
  %conv26 = trunc i64 %call to i32
  br label %return

return:                                           ; preds = %if.then18, %if.then20, %if.end25, %if.then11, %if.then3, %if.then
  %retval.0 = phi i32 [ 0, %if.then ], [ %conv, %if.then3 ], [ 0, %if.then11 ], [ %conv26, %if.end25 ], [ 0, %if.then20 ], [ 0, %if.then18 ]
  ret i32 %retval.0
}